; Function Attrs: nounwind uwtable
define dso_local range(i64 -1, -9223372036854775808) i64 @Curl_bufq_sipn(ptr noundef captures(none) %0, i64 noundef %1, ptr noundef readonly captures(none) %2, ptr noundef %3, ptr noundef initializes((0, 4)) %4) local_unnamed_addr #2 {
  store i32 81, ptr %4, align 4
  %6 = tail call fastcc ptr @get_non_full_tail(ptr noundef %0)
  %.not = icmp eq ptr %6, null
  br i1 %.not, label %7, label %15

7:                                                ; preds = %5
  %8 = getelementptr inbounds nuw i8, ptr %0, i64 32
  %9 = load i64, ptr %8, align 8
  %10 = getelementptr inbounds nuw i8, ptr %0, i64 40
  %11 = load i64, ptr %10, align 8
  %12 = icmp ult i64 %9, %11
  br i1 %12, label %13, label %14

13:                                               ; preds = %7
  store i32 27, ptr %4, align 4
  br label %32

14:                                               ; preds = %7
  store i32 81, ptr %4, align 4
  br label %32

15:                                               ; preds = %5
  %16 = getelementptr inbounds nuw i8, ptr %6, i64 24
  %17 = load i64, ptr %16, align 8
  %18 = getelementptr inbounds nuw i8, ptr %6, i64 8
  %19 = load i64, ptr %18, align 8
  %.not.i = icmp eq i64 %19, %17
  br i1 %.not.i, label %chunk_slurpn.exit.thread, label %20

chunk_slurpn.exit.thread:                         ; preds = %15
  store i32 81, ptr %4, align 4
  br label %32

20:                                               ; preds = %15
  %21 = sub i64 %19, %17
  %22 = getelementptr inbounds nuw i8, ptr %6, i64 32
  %23 = getelementptr inbounds [1 x i8], ptr %22, i64 0, i64 %17
  %.not23.not.i = icmp eq i64 %1, 0
  %24 = tail call i64 @llvm.umin.i64(i64 %21, i64 %1)
  %.019.i = select i1 %.not23.not.i, i64 %21, i64 %24
  %25 = tail call i64 %2(ptr noundef %3, ptr noundef nonnull %23, i64 noundef %.019.i, ptr noundef nonnull %4) #11
  %26 = icmp sgt i64 %25, 0
  br i1 %26, label %28, label %chunk_slurpn.exit

chunk_slurpn.exit:                                ; preds = %20
  %27 = icmp slt i64 %25, 0
  br i1 %27, label %32, label %31

28:                                               ; preds = %20
  %29 = load i64, ptr %16, align 8
  %30 = add i64 %29, %25
  store i64 %30, ptr %16, align 8
  br label %32

31:                                               ; preds = %chunk_slurpn.exit
  store i32 0, ptr %4, align 4
  br label %32

32:                                               ; preds = %28, %chunk_slurpn.exit.thread, %31, %chunk_slurpn.exit, %14, %13
  %.0 = phi i64 [ -1, %13 ], [ -1, %14 ], [ -1, %chunk_slurpn.exit ], [ %25, %28 ], [ 0, %31 ], [ -1, %chunk_slurpn.exit.thread ]
  ret i64 %.0
}